(dp0
S'ISBN'
p1
(lp2
S'9781303502590'
p3
asS'Copyright'
p4
(lp5
S'Copyright ProQuest, UMI Dissertations Publishing 2013'
p6
asS'Committee member'
p7
(lp8
S'Segal, Rosalind,'
p9
aS'Bardeesy, Nabeel,'
p10
aS'Lewis, Brian'
p11
asS'University location'
p12
(lp13
S'United States -- Massachusetts'
p14
asS'Source'
p15
(lp16
S'DAI-B 75/02(E), Aug 2014'
p17
asS'Degree date'
p18
(lp19
S'2013'
p20
asS'Department'
p21
(lp22
S'Cell Biology'
p23
asS'Document type'
p24
(lp25
S'Dissertation/Thesis'
p26
asS'Degree'
p27
(lp28
S'Ph.D.'
p29
asS'Author'
p30
(lp31
S'Lopez, Lyle Vincent Villamater'
p32
asS'Dissertation/thesis number'
p33
(lp34
S'3600205'
p35
asS'Title'
p36
(lp37
S'Regulation of Gli proteins by the Hedgehog Signaling Pathway'
p38
asS'ProQuest document ID'
p39
(lp40
S'1465059939'
p41
asS'Advisor'
p42
(lp43
S'Salic, Adrian,'
p44
aS'Naar, Anders'
p45
aS'Salic, Adrian'
p46
aS'Naar, Anders'
p47
asS'Country of publication'
p48
(lp49
S'United States'
p50
asS'Number of pages'
p51
(lp52
S'165'
p53
asS'Language'
p54
(lp55
S'English'
p56
asS'Database'
p57
(lp58
S'ProQuest Dissertations & Theses Full Text'
p59
asS'School code'
p60
(lp61
S'0084'
p62
asS'Publication year'
p63
(lp64
S'2013'
p65
asS'Identifier / keyword'
p66
(lp67
S'Biological sciences,'
p68
aS'Hedgehog signaling,'
p69
aS'Primary cilia,'
p70
aS'Gli protein,'
p71
aS'Proteasomes'
p72
aS'Biological sciences'
p73
aS'Hedgehog signaling'
p74
aS'Primary cilia'
p75
aS'Gli protein'
p76
aS'Proteasomes'
p77
asS'Document URL'
p78
(lp79
S'http://search.proquest.com/docview/1465059939?accountid=13314'
p80
asS'Place of publication'
p81
(lp82
S'Ann Arbor'
p83
asS'Classification'
p84
(lp85
S'0379: Cellular biology'
p86
asS'University/institution'
p87
(lp88
S'Harvard University'
p89
asS'Source type'
p90
(lp91
S'Dissertations & Theses'
p92
asS'Subject'
p93
(lp94
S'Cellular biology'
p95
as.