(dp0
S'ISBN'
p1
(lp2
S'9781303187216'
p3
asS'Copyright'
p4
(lp5
S'Copyright ProQuest, UMI Dissertations Publishing 2013'
p6
asS'Committee member'
p7
(lp8
S'Blacker, Deborah'
p9
asS'University location'
p10
(lp11
S'United States -- Massachusetts'
p12
asS'Source'
p13
(lp14
S'DAI-B 74/10(E), Apr 2014'
p15
asS'Degree date'
p16
(lp17
S'2013'
p18
asS'Department'
p19
(lp20
S'Biostatistics'
p21
asS'Document type'
p22
(lp23
S'Dissertation/Thesis'
p24
asS'Degree'
p25
(lp26
S'Ph.D.'
p27
asS'Author'
p28
(lp29
S'Swanson, David Michael'
p30
asS'Dissertation/thesis number'
p31
(lp32
S'3567085'
p33
asS'Title'
p34
(lp35
S'Hypothesis testing in GWAS and statistical issues with compensation in clinical trials'
p36
asS'ProQuest document ID'
p37
(lp38
S'1417765675'
p39
asS'Advisor'
p40
(lp41
S'Betensky, Rebecca,'
p42
aS'Lange, Christoph'
p43
aS'Betensky, Rebecca'
p44
aS'Lange, Christoph'
p45
asS'Country of publication'
p46
(lp47
S'United States'
p48
asS'Number of pages'
p49
(lp50
S'61'
p51
asS'Language'
p52
(lp53
S'English'
p54
asS'Database'
p55
(lp56
S'ProQuest Dissertations & Theses Full Text'
p57
asS'School code'
p58
(lp59
S'0084'
p60
asS'Publication year'
p61
(lp62
S'2013'
p63
asS'Identifier / keyword'
p64
(lp65
S'Biological sciences,'
p66
aS'Health and environmental sciences,'
p67
aS'Prevalence-incidence bias,'
p68
aS'Compensation,'
p69
aS'Dependent censoring,'
p70
aS'Dimension-reduction,'
p71
aS'Genome-wide association studies,'
p72
aS'U-statistic'
p73
aS'Biological sciences'
p74
aS'Health and environmental sciences'
p75
aS'Prevalence-incidence bias'
p76
aS'Compensation'
p77
aS'Dependent censoring'
p78
aS'Dimension-reduction'
p79
aS'Genome-wide association studies'
p80
aS'U-statistic'
p81
asS'Document URL'
p82
(lp83
S'http://search.proquest.com/docview/1417765675?accountid=13314'
p84
asS'Place of publication'
p85
(lp86
S'Ann Arbor'
p87
asS'Classification'
p88
(lp89
S'0308: Biostatistics'
p90
aS'0766: Epidemiology'
p91
asS'University/institution'
p92
(lp93
S'Harvard University'
p94
asS'Source type'
p95
(lp96
S'Dissertations & Theses'
p97
asS'Subject'
p98
(lp99
S'Biostatistics'
p100
aS'Epidemiology'
p101
as.