(dp0
S'ISBN'
p1
(lp2
S'9781303503368'
p3
asS'Copyright'
p4
(lp5
S'Copyright ProQuest, UMI Dissertations Publishing 2013'
p6
asS'Committee member'
p7
(lp8
S'Xie, Sunney,'
p9
aS'Verdine, Gregory'
p10
asS'University location'
p11
(lp12
S'United States -- Massachusetts'
p13
asS'Source'
p14
(lp15
S'DAI-B 75/02(E), Aug 2014'
p16
asS'Degree date'
p17
(lp18
S'2013'
p19
asS'Department'
p20
(lp21
S'Chemical Physics'
p22
asS'Document type'
p23
(lp24
S'Dissertation/Thesis'
p25
asS'Degree'
p26
(lp27
S'Ph.D.'
p28
asS'Author'
p29
(lp30
S'Xu, Jiabin'
p31
asS'Dissertation/thesis number'
p32
(lp33
S'3600270'
p34
asS'Title'
p35
(lp36
S'Computer Simulations of Protein Folding and Evolution'
p37
asS'ProQuest document ID'
p38
(lp39
S'1466023985'
p40
asS'Advisor'
p41
(lp42
S'Shakhnovich, Eugene I.'
p43
aS'Shakhnovich, Eugene I.'
p44
asS'Country of publication'
p45
(lp46
S'United States'
p47
asS'Number of pages'
p48
(lp49
S'122'
p50
asS'Language'
p51
(lp52
S'English'
p53
asS'Database'
p54
(lp55
S'ProQuest Dissertations & Theses Full Text'
p56
asS'School code'
p57
(lp58
S'0084'
p59
asS'Publication year'
p60
(lp61
S'2013'
p62
asS'Identifier / keyword'
p63
(lp64
S'Biological sciences,'
p65
aS'Computer simulation,'
p66
aS'Protein folding,'
p67
aS'Regulatory sequences,'
p68
aS'Recombination,'
p69
aS'Mutation'
p70
aS'Biological sciences'
p71
aS'Computer simulation'
p72
aS'Protein folding'
p73
aS'Regulatory sequences'
p74
aS'Recombination'
p75
aS'Mutation'
p76
asS'Document URL'
p77
(lp78
S'http://search.proquest.com/docview/1466023985?accountid=13314'
p79
asS'Place of publication'
p80
(lp81
S'Ann Arbor'
p82
asS'Classification'
p83
(lp84
S'0786: Biophysics'
p85
asS'University/institution'
p86
(lp87
S'Harvard University'
p88
asS'Source type'
p89
(lp90
S'Dissertations & Theses'
p91
asS'Subject'
p92
(lp93
S'Biophysics'
p94
as.